---
triple:          'arm64-apple-darwin'
binary-path:     '/Users/chetanmeshram/Reverse/Cpp/output/Reverse_Array'
relocations:
  - { offsetInCU: 0x2D97, offset: 0x2D97, size: 0x8, addend: 0x0, symName: __ZNSt3__124__put_character_sequenceB8ue170006IcNS_11char_traitsIcEEEERNS_13basic_ostreamIT_T0_EES7_PKS4_m, symObjAddr: 0x1E8, symBinAddr: 0x1000031B0, symSize: 0x1F4 }
  - { offsetInCU: 0x46E4, offset: 0x46E4, size: 0x8, addend: 0x0, symName: __ZNSt3__1lsB8ue170006INS_11char_traitsIcEEEERNS_13basic_ostreamIcT_EES6_PKc, symObjAddr: 0x164, symBinAddr: 0x10000312C, symSize: 0x48 }
  - { offsetInCU: 0x472A, offset: 0x472A, size: 0x8, addend: 0x0, symName: __ZNSt3__14swapB8ue170006IiEEvRT_S2_, symObjAddr: 0x1AC, symBinAddr: 0x100003174, symSize: 0x3C }
  - { offsetInCU: 0x477B, offset: 0x477B, size: 0x8, addend: 0x0, symName: __ZNSt3__116__pad_and_outputB8ue170006IcNS_11char_traitsIcEEEENS_19ostreambuf_iteratorIT_T0_EES6_PKS4_S8_S8_RNS_8ios_baseES4_, symObjAddr: 0x440, symBinAddr: 0x100003408, symSize: 0x248 }
  - { offsetInCU: 0x484A, offset: 0x484A, size: 0x8, addend: 0x0, symName: __ZNSt3__112__to_addressB8ue170006IKcEEPT_S3_, symObjAddr: 0x9BC, symBinAddr: 0x100003984, symSize: 0x14 }
  - { offsetInCU: 0x487F, offset: 0x487F, size: 0x8, addend: 0x0, symName: __ZNSt3__130__libcpp_is_constant_evaluatedB8ue170006Ev, symObjAddr: 0xAE8, symBinAddr: 0x100003AB0, symSize: 0xC }
  - { offsetInCU: 0x48CF, offset: 0x48CF, size: 0x8, addend: 0x0, symName: __ZNSt3__19use_facetB8ue170006INS_5ctypeIcEEEERKT_RKNS_6localeE, symObjAddr: 0xCA0, symBinAddr: 0x100003C68, symSize: 0x2C }
  - { offsetInCU: 0x4D9C, offset: 0x4D9C, size: 0x8, addend: 0x0, symName: __ZNSt3__118__constexpr_strlenB8ue170006EPKc, symObjAddr: 0xD38, symBinAddr: 0x100003D00, symSize: 0x24 }
  - { offsetInCU: 0x7377, offset: 0x7377, size: 0x8, addend: 0x0, symName: _main, symObjAddr: 0x0, symBinAddr: 0x100002FC8, symSize: 0xDC }
  - { offsetInCU: 0x7402, offset: 0x7402, size: 0x8, addend: 0x0, symName: __ZN8Solution12reverseArrayEPii, symObjAddr: 0xDC, symBinAddr: 0x1000030A4, symSize: 0x88 }
  - { offsetInCU: 0x745E, offset: 0x745E, size: 0x8, addend: 0x0, symName: __ZNSt3__111char_traitsIcE6lengthB8ue170006EPKc, symObjAddr: 0x3DC, symBinAddr: 0x1000033A4, symSize: 0x48 }
  - { offsetInCU: 0x749E, offset: 0x749E, size: 0x8, addend: 0x0, symName: __ZNKSt3__113basic_ostreamIcNS_11char_traitsIcEEE6sentrycvbB8ue170006Ev, symObjAddr: 0x424, symBinAddr: 0x1000033EC, symSize: 0x1C }
  - { offsetInCU: 0x74C2, offset: 0x74C2, size: 0x8, addend: 0x0, symName: __ZNSt3__119ostreambuf_iteratorIcNS_11char_traitsIcEEEC1B8ue170006ERNS_13basic_ostreamIcS2_EE, symObjAddr: 0x688, symBinAddr: 0x100003650, symSize: 0x34 }
  - { offsetInCU: 0x74F8, offset: 0x74F8, size: 0x8, addend: 0x0, symName: __ZNKSt3__18ios_base5flagsB8ue170006Ev, symObjAddr: 0x6BC, symBinAddr: 0x100003684, symSize: 0x18 }
  - { offsetInCU: 0x751E, offset: 0x751E, size: 0x8, addend: 0x0, symName: __ZNKSt3__19basic_iosIcNS_11char_traitsIcEEE4fillB8ue170006Ev, symObjAddr: 0x6D4, symBinAddr: 0x10000369C, symSize: 0x64 }
  - { offsetInCU: 0x7544, offset: 0x7544, size: 0x8, addend: 0x0, symName: __ZNKSt3__119ostreambuf_iteratorIcNS_11char_traitsIcEEE6failedB8ue170006Ev, symObjAddr: 0x738, symBinAddr: 0x100003700, symSize: 0x24 }
  - { offsetInCU: 0x7568, offset: 0x7568, size: 0x8, addend: 0x0, symName: __ZNSt3__19basic_iosIcNS_11char_traitsIcEEE8setstateB8ue170006Ej, symObjAddr: 0x75C, symBinAddr: 0x100003724, symSize: 0x2C }
  - { offsetInCU: 0x759B, offset: 0x759B, size: 0x8, addend: 0x0, symName: __ZNKSt3__18ios_base5widthB8ue170006Ev, symObjAddr: 0x794, symBinAddr: 0x10000375C, symSize: 0x18 }
  - { offsetInCU: 0x75C1, offset: 0x75C1, size: 0x8, addend: 0x0, symName: __ZNSt3__115basic_streambufIcNS_11char_traitsIcEEE5sputnB8ue170006EPKcl, symObjAddr: 0x7AC, symBinAddr: 0x100003774, symSize: 0x3C }
  - { offsetInCU: 0x7601, offset: 0x7601, size: 0x8, addend: 0x0, symName: __ZNSt3__112basic_stringIcNS_11char_traitsIcEENS_9allocatorIcEEEC1B8ue170006Emc, symObjAddr: 0x7E8, symBinAddr: 0x1000037B0, symSize: 0x3C }
  - { offsetInCU: 0x7647, offset: 0x7647, size: 0x8, addend: 0x0, symName: __ZNKSt3__112basic_stringIcNS_11char_traitsIcEENS_9allocatorIcEEE4dataB8ue170006Ev, symObjAddr: 0x824, symBinAddr: 0x1000037EC, symSize: 0x28 }
  - { offsetInCU: 0x766B, offset: 0x766B, size: 0x8, addend: 0x0, symName: __ZNSt3__18ios_base5widthB8ue170006El, symObjAddr: 0x84C, symBinAddr: 0x100003814, symSize: 0x2C }
  - { offsetInCU: 0x76AF, offset: 0x76AF, size: 0x8, addend: 0x0, symName: __ZNSt3__112basic_stringIcNS_11char_traitsIcEENS_9allocatorIcEEEC2B8ue170006Emc, symObjAddr: 0x878, symBinAddr: 0x100003840, symSize: 0x4C }
  - { offsetInCU: 0x76FA, offset: 0x76FA, size: 0x8, addend: 0x0, symName: __ZNSt3__117__compressed_pairINS_12basic_stringIcNS_11char_traitsIcEENS_9allocatorIcEEE5__repES5_EC1B8ue170006INS_18__default_init_tagESA_EEOT_OT0_, symObjAddr: 0x8C4, symBinAddr: 0x10000388C, symSize: 0x3C }
  - { offsetInCU: 0x7750, offset: 0x7750, size: 0x8, addend: 0x0, symName: __ZNSt3__117__compressed_pairINS_12basic_stringIcNS_11char_traitsIcEENS_9allocatorIcEEE5__repES5_EC2B8ue170006INS_18__default_init_tagESA_EEOT_OT0_, symObjAddr: 0x900, symBinAddr: 0x1000038C8, symSize: 0x3C }
  - { offsetInCU: 0x77A6, offset: 0x77A6, size: 0x8, addend: 0x0, symName: __ZNSt3__122__compressed_pair_elemINS_12basic_stringIcNS_11char_traitsIcEENS_9allocatorIcEEE5__repELi0ELb0EEC2B8ue170006ENS_18__default_init_tagE, symObjAddr: 0x93C, symBinAddr: 0x100003904, symSize: 0x14 }
  - { offsetInCU: 0x77D8, offset: 0x77D8, size: 0x8, addend: 0x0, symName: __ZNSt3__122__compressed_pair_elemINS_9allocatorIcEELi1ELb1EEC2B8ue170006ENS_18__default_init_tagE, symObjAddr: 0x950, symBinAddr: 0x100003918, symSize: 0x2C }
  - { offsetInCU: 0x780A, offset: 0x780A, size: 0x8, addend: 0x0, symName: __ZNSt3__19allocatorIcEC2B8ue170006Ev, symObjAddr: 0x97C, symBinAddr: 0x100003944, symSize: 0x2C }
  - { offsetInCU: 0x7832, offset: 0x7832, size: 0x8, addend: 0x0, symName: __ZNSt3__116__non_trivial_ifILb1ENS_9allocatorIcEEEC2B8ue170006Ev, symObjAddr: 0x9A8, symBinAddr: 0x100003970, symSize: 0x14 }
  - { offsetInCU: 0x785A, offset: 0x785A, size: 0x8, addend: 0x0, symName: __ZNKSt3__112basic_stringIcNS_11char_traitsIcEENS_9allocatorIcEEE13__get_pointerB8ue170006Ev, symObjAddr: 0x9D0, symBinAddr: 0x100003998, symSize: 0x54 }
  - { offsetInCU: 0x787E, offset: 0x787E, size: 0x8, addend: 0x0, symName: __ZNKSt3__112basic_stringIcNS_11char_traitsIcEENS_9allocatorIcEEE9__is_longB8ue170006Ev, symObjAddr: 0xA24, symBinAddr: 0x1000039EC, symSize: 0x74 }
  - { offsetInCU: 0x78A2, offset: 0x78A2, size: 0x8, addend: 0x0, symName: __ZNKSt3__112basic_stringIcNS_11char_traitsIcEENS_9allocatorIcEEE18__get_long_pointerB8ue170006Ev, symObjAddr: 0xA98, symBinAddr: 0x100003A60, symSize: 0x28 }
  - { offsetInCU: 0x78C6, offset: 0x78C6, size: 0x8, addend: 0x0, symName: __ZNKSt3__112basic_stringIcNS_11char_traitsIcEENS_9allocatorIcEEE19__get_short_pointerB8ue170006Ev, symObjAddr: 0xAC0, symBinAddr: 0x100003A88, symSize: 0x28 }
  - { offsetInCU: 0x78EA, offset: 0x78EA, size: 0x8, addend: 0x0, symName: __ZNKSt3__117__compressed_pairINS_12basic_stringIcNS_11char_traitsIcEENS_9allocatorIcEEE5__repES5_E5firstB8ue170006Ev, symObjAddr: 0xAF4, symBinAddr: 0x100003ABC, symSize: 0x24 }
  - { offsetInCU: 0x790E, offset: 0x790E, size: 0x8, addend: 0x0, symName: __ZNKSt3__122__compressed_pair_elemINS_12basic_stringIcNS_11char_traitsIcEENS_9allocatorIcEEE5__repELi0ELb0EE5__getB8ue170006Ev, symObjAddr: 0xB18, symBinAddr: 0x100003AE0, symSize: 0x14 }
  - { offsetInCU: 0x7932, offset: 0x7932, size: 0x8, addend: 0x0, symName: __ZNSt3__114pointer_traitsIPKcE10pointer_toB8ue170006ERS1_, symObjAddr: 0xB2C, symBinAddr: 0x100003AF4, symSize: 0x14 }
  - { offsetInCU: 0x7954, offset: 0x7954, size: 0x8, addend: 0x0, symName: __ZNSt3__119ostreambuf_iteratorIcNS_11char_traitsIcEEEC2B8ue170006ERNS_13basic_ostreamIcS2_EE, symObjAddr: 0xB40, symBinAddr: 0x100003B08, symSize: 0x68 }
  - { offsetInCU: 0x798A, offset: 0x798A, size: 0x8, addend: 0x0, symName: __ZNKSt3__19basic_iosIcNS_11char_traitsIcEEE5rdbufB8ue170006Ev, symObjAddr: 0xBA8, symBinAddr: 0x100003B70, symSize: 0x24 }
  - { offsetInCU: 0x79B0, offset: 0x79B0, size: 0x8, addend: 0x0, symName: __ZNKSt3__18ios_base5rdbufB8ue170006Ev, symObjAddr: 0xBCC, symBinAddr: 0x100003B94, symSize: 0x18 }
  - { offsetInCU: 0x79D4, offset: 0x79D4, size: 0x8, addend: 0x0, symName: __ZNSt3__111char_traitsIcE11eq_int_typeB8ue170006Eii, symObjAddr: 0xBE4, symBinAddr: 0x100003BAC, symSize: 0x28 }
  - { offsetInCU: 0x7A06, offset: 0x7A06, size: 0x8, addend: 0x0, symName: __ZNSt3__111char_traitsIcE3eofB8ue170006Ev, symObjAddr: 0xC0C, symBinAddr: 0x100003BD4, symSize: 0x8 }
  - { offsetInCU: 0x7A19, offset: 0x7A19, size: 0x8, addend: 0x0, symName: __ZNKSt3__19basic_iosIcNS_11char_traitsIcEEE5widenB8ue170006Ec, symObjAddr: 0xC14, symBinAddr: 0x100003BDC, symSize: 0x8C }
  - { offsetInCU: 0x7A85, offset: 0x7A85, size: 0x8, addend: 0x0, symName: __ZNKSt3__15ctypeIcE5widenB8ue170006Ec, symObjAddr: 0xCCC, symBinAddr: 0x100003C94, symSize: 0x38 }
  - { offsetInCU: 0x7AB8, offset: 0x7AB8, size: 0x8, addend: 0x0, symName: __ZNSt3__18ios_base8setstateB8ue170006Ej, symObjAddr: 0xD04, symBinAddr: 0x100003CCC, symSize: 0x34 }
...
